(lp0
(dp1
S'11'
p2
(dp3
cnumpy.core.multiarray
scalar
p4
(cnumpy
dtype
p5
(S'f8'
p6
I0
I1
tp7
Rp8
(I3
S'<'
p9
NNNI-1
I-1
I0
tp10
bS'-\x05\xbe2,Q\xfe?'
p11
tp12
Rp13
F0.20000000000000004
sg4
(g8
S'\x8f\xe0\xcc\x92\x10\x0c\xfd?'
p14
tp15
Rp16
F0.20000000000000004
sg4
(g8
S';\x86{s(\x17\xfa?'
p17
tp18
Rp19
F0.10000000000000002
sg4
(g8
S'\xe8\xd3\xc0\x9b\x90\xf1\xfb?'
p20
tp21
Rp22
F0.30000000000000004
sg4
(g8
S'\x0b\xd4\x00mrK\xf9?'
p23
tp24
Rp25
F0.10000000000000002
sg4
(g8
S'\xbf6H\xd6\x99\xd0\xff?'
p26
tp27
Rp28
F0.10000000000000002
ssS'10'
p29
(dp30
g4
(g8
S'\xc5_*\x92YD\xf7?'
p31
tp32
Rp33
F0.10000000000000002
sg4
(g8
S'\xb3my\n|\xe4\xf7?'
p34
tp35
Rp36
F0.5000000000000001
sg4
(g8
S'\xf0\xf1?&\xce\x90\xf8?'
p37
tp38
Rp39
F0.10000000000000002
sg4
(g8
S'\x0b\xd4\x00mrK\xf9?'
p40
tp41
Rp42
F0.20000000000000004
sg4
(g8
S'iYEz\x8f\xf7\xfa?'
p43
tp44
Rp45
F0.10000000000000002
ssS'12'
p46
(dp47
g4
(g8
S'\n\xabT\xa6P \xf5?'
p48
tp49
Rp50
F0.30000000000000004
sg4
(g8
S'\xe3J\xdb\xa23"\xf6?'
p51
tp52
Rp53
F0.30000000000000004
sg4
(g8
S'\xd0\xc2k\x03\xb6\x9d\xf5?'
p54
tp55
Rp56
F0.20000000000000004
sg4
(g8
S'W\xbdz\xbb=\xa9\xf4?'
p57
tp58
Rp59
F0.10000000000000002
sg4
(g8
S'\x14\xe9I\xbc\xb5\xae\xf6?'
p60
tp61
Rp62
F0.10000000000000002
ssS'1'
p63
(dp64
g4
(g8
S'\xc5_*\x92YD\xf7?'
p65
tp66
Rp67
F0.20000000000000004
sg4
(g8
S'\xb3my\n|\xe4\xf7?'
p68
tp69
Rp70
F0.30000000000000004
sg4
(g8
S'\xf0\xf1?&\xce\x90\xf8?'
p71
tp72
Rp73
F0.10000000000000002
sg4
(g8
S';\x86{s(\x17\xfa?'
p74
tp75
Rp76
F0.10000000000000002
sg4
(g8
S'\x14\xe9I\xbc\xb5\xae\xf6?'
p77
tp78
Rp79
F0.30000000000000004
ssS'0'
p80
(dp81
g4
(g8
S'\xc5_*\x92YD\xf7?'
p82
tp83
Rp84
F0.20000000000000004
sg4
(g8
S'\xe3J\xdb\xa23"\xf6?'
p85
tp86
Rp87
F0.10000000000000002
sg4
(g8
S'\xd0\xc2k\x03\xb6\x9d\xf5?'
p88
tp89
Rp90
F0.20000000000000004
sg4
(g8
S'W\xbdz\xbb=\xa9\xf4?'
p91
tp92
Rp93
F0.30000000000000004
sg4
(g8
S'\x14\xe9I\xbc\xb5\xae\xf6?'
p94
tp95
Rp96
F0.10000000000000002
sg4
(g8
S'\n\xabT\xa6P \xf5?'
p97
tp98
Rp99
F0.10000000000000002
ssS'3'
p100
(dp101
g4
(g8
S'\xc5_*\x92YD\xf7?'
p102
tp103
Rp104
F0.20000000000000004
sg4
(g8
S'\xb3my\n|\xe4\xf7?'
p105
tp106
Rp107
F0.30000000000000004
sg4
(g8
S'\xe3J\xdb\xa23"\xf6?'
p108
tp109
Rp110
F0.20000000000000004
sg4
(g8
S'\xd0\xc2k\x03\xb6\x9d\xf5?'
p111
tp112
Rp113
F0.10000000000000002
sg4
(g8
S'\x0b\xd4\x00mrK\xf9?'
p114
tp115
Rp116
F0.10000000000000002
sg4
(g8
S'\xf0\xf1?&\xce\x90\xf8?'
p117
tp118
Rp119
F0.10000000000000002
ssS'2'
p120
(dp121
g4
(g8
S'\xf0\xf1?&\xce\x90\xf8?'
p122
tp123
Rp124
F0.10000000000000002
sg4
(g8
S'\x14\xe9I\xbc\xb5\xae\xf6?'
p125
tp126
Rp127
F0.20000000000000004
sg4
(g8
S'\xe3J\xdb\xa23"\xf6?'
p128
tp129
Rp130
F0.30000000000000004
sg4
(g8
S'\xd0\xc2k\x03\xb6\x9d\xf5?'
p131
tp132
Rp133
F0.4000000000000001
ssS'5'
p134
(dp135
g4
(g8
S'`f\xdbh`\xd2\x00@'
p136
tp137
Rp138
F0.20000000000000004
sg4
(g8
S'iYEz\x8f\xf7\xfa?'
p139
tp140
Rp141
F0.10000000000000002
sg4
(g8
S'-\x05\xbe2,Q\xfe?'
p142
tp143
Rp144
F0.30000000000000004
sg4
(g8
S'\x8f\xe0\xcc\x92\x10\x0c\xfd?'
p145
tp146
Rp147
F0.10000000000000002
sg4
(g8
S'\xe8\xd3\xc0\x9b\x90\xf1\xfb?'
p148
tp149
Rp150
F0.10000000000000002
sg4
(g8
S'\xbf6H\xd6\x99\xd0\xff?'
p151
tp152
Rp153
F0.20000000000000004
ssS'4'
p154
(dp155
g4
(g8
S'\xc5_*\x92YD\xf7?'
p156
tp157
Rp158
F0.10000000000000002
sg4
(g8
S'\xb3my\n|\xe4\xf7?'
p159
tp160
Rp161
F0.30000000000000004
sg4
(g8
S';\x86{s(\x17\xfa?'
p162
tp163
Rp164
F0.10000000000000002
sg4
(g8
S'\x14\xe9I\xbc\xb5\xae\xf6?'
p165
tp166
Rp167
F0.10000000000000002
sg4
(g8
S'\x0b\xd4\x00mrK\xf9?'
p168
tp169
Rp170
F0.20000000000000004
sg4
(g8
S'iYEz\x8f\xf7\xfa?'
p171
tp172
Rp173
F0.10000000000000002
sg4
(g8
S'\xf0\xf1?&\xce\x90\xf8?'
p174
tp175
Rp176
F0.10000000000000002
ssS'7'
p177
(dp178
g4
(g8
S'\xc5_*\x92YD\xf7?'
p179
tp180
Rp181
F0.10000000000000002
sg4
(g8
S'\xb3my\n|\xe4\xf7?'
p182
tp183
Rp184
F0.10000000000000002
sg4
(g8
S'\xe3J\xdb\xa23"\xf6?'
p185
tp186
Rp187
F0.30000000000000004
sg4
(g8
S'W\xbdz\xbb=\xa9\xf4?'
p188
tp189
Rp190
F0.10000000000000002
sg4
(g8
S'\x14\xe9I\xbc\xb5\xae\xf6?'
p191
tp192
Rp193
F0.10000000000000002
sg4
(g8
S'\x0b\xd4\x00mrK\xf9?'
p194
tp195
Rp196
F0.20000000000000004
sg4
(g8
S'\xf0\xf1?&\xce\x90\xf8?'
p197
tp198
Rp199
F0.10000000000000002
ssS'6'
p200
(dp201
g4
(g8
S'\xb3my\n|\xe4\xf7?'
p202
tp203
Rp204
F0.20000000000000004
sg4
(g8
S'\x8f\xe0\xcc\x92\x10\x0c\xfd?'
p205
tp206
Rp207
F0.10000000000000002
sg4
(g8
S';\x86{s(\x17\xfa?'
p208
tp209
Rp210
F0.20000000000000004
sg4
(g8
S'\xe8\xd3\xc0\x9b\x90\xf1\xfb?'
p211
tp212
Rp213
F0.10000000000000002
sg4
(g8
S'\x0b\xd4\x00mrK\xf9?'
p214
tp215
Rp216
F0.10000000000000002
sg4
(g8
S'iYEz\x8f\xf7\xfa?'
p217
tp218
Rp219
F0.20000000000000004
sg4
(g8
S'\xf0\xf1?&\xce\x90\xf8?'
p220
tp221
Rp222
F0.10000000000000002
ssS'9'
p223
(dp224
g4
(g8
S'\xf0\xf1?&\xce\x90\xf8?'
p225
tp226
Rp227
F0.20000000000000004
sg4
(g8
S'\xc5_*\x92YD\xf7?'
p228
tp229
Rp230
F0.10000000000000002
sg4
(g8
S'\x0b\xd4\x00mrK\xf9?'
p231
tp232
Rp233
F0.5000000000000001
sg4
(g8
S';\x86{s(\x17\xfa?'
p234
tp235
Rp236
F0.10000000000000002
sg4
(g8
S'iYEz\x8f\xf7\xfa?'
p237
tp238
Rp239
F0.10000000000000002
ssS'8'
p240
(dp241
g4
(g8
S'\xc5_*\x92YD\xf7?'
p242
tp243
Rp244
F0.20000000000000004
sg4
(g8
S'\xb3my\n|\xe4\xf7?'
p245
tp246
Rp247
F0.10000000000000002
sg4
(g8
S'\xe3J\xdb\xa23"\xf6?'
p248
tp249
Rp250
F0.20000000000000004
sg4
(g8
S'W\xbdz\xbb=\xa9\xf4?'
p251
tp252
Rp253
F0.20000000000000004
sg4
(g8
S'\x14\xe9I\xbc\xb5\xae\xf6?'
p254
tp255
Rp256
F0.10000000000000002
sg4
(g8
S'\xf0\xf1?&\xce\x90\xf8?'
p257
tp258
Rp259
F0.10000000000000002
sg4
(g8
S'\n\xabT\xa6P \xf5?'
p260
tp261
Rp262
F0.10000000000000002
ssa(dp263
g2
(dp264
g4
(g8
S'\x00\x00\x00\x00\x00\x00(@'
p265
tp266
Rp267
F1.0
ssg29
(dp268
g4
(g8
S'\x00\x00\x00\x00\x00\x000@'
p269
tp270
Rp271
F0.4000000000000001
sg4
(g8
S'\x00\x00\x00\x00\x00\x00,@'
p272
tp273
Rp274
F0.6000000000000001
ssg46
(dp275
g4
(g8
S'\x00\x00\x00\x00\x00\x00(@'
p276
tp277
Rp278
F1.0
ssg63
(dp279
g4
(g8
S'\x00\x00\x00\x00\x00\x00\x00\x00'
p280
tp281
Rp282
F0.6000000000000001
sg4
(g8
S'\x00\x00\x00\x00\x00\x006@'
p283
tp284
Rp285
F0.4000000000000001
ssg80
(dp286
g4
(g8
S'\x00\x00\x00\x00\x00\x00\x00\x00'
p287
tp288
Rp289
F0.9
sg4
(g8
S'\x00\x00\x00\x00\x00\x006@'
p290
tp291
Rp292
F0.10000000000000002
ssg100
(dp293
g4
(g8
S'\x00\x00\x00\x00\x00\x004@'
p294
tp295
Rp296
F0.6000000000000001
sg4
(g8
S'\x00\x00\x00\x00\x00\x006@'
p297
tp298
Rp299
F0.4000000000000001
ssg120
(dp300
g4
(g8
S'\x00\x00\x00\x00\x00\x004@'
p301
tp302
Rp303
F0.4000000000000001
sg4
(g8
S'\x00\x00\x00\x00\x00\x006@'
p304
tp305
Rp306
F0.6000000000000001
ssg134
(dp307
g4
(g8
S'\x00\x00\x00\x00\x00\x004@'
p308
tp309
Rp310
F1.0
ssg154
(dp311
g4
(g8
S'\x00\x00\x00\x00\x00\x004@'
p312
tp313
Rp314
F0.6000000000000001
sg4
(g8
S'\x00\x00\x00\x00\x00\x006@'
p315
tp316
Rp317
F0.4000000000000001
ssg177
(dp318
g4
(g8
S'\x00\x00\x00\x00\x00\x000@'
p319
tp320
Rp321
F0.7000000000000001
sg4
(g8
S'\x00\x00\x00\x00\x00\x002@'
p322
tp323
Rp324
F0.10000000000000002
sg4
(g8
S'\x00\x00\x00\x00\x00\x00,@'
p325
tp326
Rp327
F0.20000000000000004
ssg200
(dp328
g4
(g8
S'\x00\x00\x00\x00\x00\x002@'
p329
tp330
Rp331
F1.0
ssg223
(dp332
g4
(g8
S'\x00\x00\x00\x00\x00\x00,@'
p333
tp334
Rp335
F1.0
ssg240
(dp336
g4
(g8
S'\x00\x00\x00\x00\x00\x000@'
p337
tp338
Rp339
F1.0
ssa.